; Function Attrs: mustprogress uwtable
define noalias noundef nonnull ptr @lean_uv_udp_set_ttl(ptr noundef readonly captures(none) %0, i32 noundef %1, ptr noundef readnone captures(none) %2) local_unnamed_addr #0 {
  %4 = getelementptr i8, ptr %0, i64 16
  %.val = load ptr, ptr %4, align 8, !tbaa !40
  tail call void @_ZN4lean15event_loop_lockEPNS_12event_loop_tE(ptr noundef nonnull @_ZN4lean9global_evE)
  %5 = load ptr, ptr %.val, align 8, !tbaa !20
  %6 = tail call i32 @uv_udp_set_ttl(ptr noundef %5, i32 noundef %1)
  tail call void @_ZN4lean17event_loop_unlockEPNS_12event_loop_tE(ptr noundef nonnull @_ZN4lean9global_evE)
  %7 = icmp slt i32 %6, 0
  br i1 %7, label %8, label %13

8:                                                ; preds = %3
  %9 = tail call ptr @lean_decode_uv_error(i32 noundef %6, ptr noundef null)
  tail call void @lean_inc_heartbeat()
  %10 = tail call noalias ptr @mi_malloc_small(i64 noundef 24) #15
  %11 = icmp eq ptr %10, null
  br i1 %11, label %12, label %_ZL23lean_io_result_mk_errorP11lean_object.exit

12:                                               ; preds = %8
  tail call void @lean_internal_panic_out_of_memory() #16
  unreachable

13:                                               ; preds = %3
  tail call void @lean_inc_heartbeat()
  %14 = tail call noalias ptr @mi_malloc_small(i64 noundef 24) #15
  %15 = icmp eq ptr %14, null
  br i1 %15, label %16, label %_ZL23lean_io_result_mk_errorP11lean_object.exit

16:                                               ; preds = %13
  tail call void @lean_internal_panic_out_of_memory() #16
  unreachable

_ZL23lean_io_result_mk_errorP11lean_object.exit:  ; preds = %13, %8
  %.sink12 = phi ptr [ %10, %8 ], [ %14, %13 ]
  %.sink9 = phi i32 [ 16908312, %8 ], [ 131096, %13 ]
  %.sink = phi ptr [ %9, %8 ], [ inttoptr (i64 1 to ptr), %13 ]
  %17 = getelementptr inbounds nuw i8, ptr %.sink12, i64 4
  store i32 1, ptr %.sink12, align 4, !tbaa !36
  store i32 %.sink9, ptr %17, align 4
  %18 = getelementptr inbounds nuw i8, ptr %.sink12, i64 8
  store ptr %.sink, ptr %18, align 8, !tbaa !30
  %19 = getelementptr inbounds nuw i8, ptr %.sink12, i64 16
  store ptr inttoptr (i64 1 to ptr), ptr %19, align 8, !tbaa !30
  ret ptr %.sink12
}